; Function Attrs: mustprogress uwtable
define hidden void @_ZN6Assimp12PbrtExporter12RemoveSuffixENSt7__cxx1112basic_stringIcSt11char_traitsIcESaIcEEE(ptr dead_on_unwind noalias writable sret(%"class.std::__cxx11::basic_string") align 8 %0, ptr noundef nonnull %1) local_unnamed_addr #3 align 2 personality ptr @__gxx_personality_v0 {
  %3 = tail call noundef i64 @_ZNKSt7__cxx1112basic_stringIcSt11char_traitsIcESaIcEE5rfindEcm(ptr noundef nonnull align 8 dereferenceable(32) %1, i8 noundef signext 46, i64 noundef -1) #27
  %.not = icmp eq i64 %3, -1
  br i1 %.not, label %11, label %4

4:                                                ; preds = %2
  %5 = getelementptr inbounds nuw i8, ptr %1, i64 8
  %6 = load i64, ptr %5, align 8
  %7 = icmp ugt i64 %3, %6
  br i1 %7, label %8, label %_ZNSt7__cxx1112basic_stringIcSt11char_traitsIcESaIcEE5eraseEmm.exit

8:                                                ; preds = %4
  tail call void (ptr, ...) @_ZSt24__throw_out_of_range_fmtPKcz(ptr noundef nonnull @.str.161, ptr noundef nonnull @.str.167, i64 noundef %3, i64 noundef %6) #28
  unreachable

_ZNSt7__cxx1112basic_stringIcSt11char_traitsIcESaIcEE5eraseEmm.exit: ; preds = %4
  store i64 %3, ptr %5, align 8
  %9 = load ptr, ptr %1, align 8
  %10 = getelementptr inbounds nuw i8, ptr %9, i64 %3
  store i8 0, ptr %10, align 1
  br label %11

11:                                               ; preds = %_ZNSt7__cxx1112basic_stringIcSt11char_traitsIcESaIcEE5eraseEmm.exit, %2
  %12 = getelementptr inbounds nuw i8, ptr %0, i64 16
  store ptr %12, ptr %0, align 8
  %13 = load ptr, ptr %1, align 8
  %14 = getelementptr inbounds nuw i8, ptr %1, i64 16
  %15 = icmp eq ptr %13, %14
  br i1 %15, label %16, label %_ZNKSt7__cxx1112basic_stringIcSt11char_traitsIcESaIcEE11_M_is_localEv.exit.i

16:                                               ; preds = %11
  %17 = getelementptr inbounds nuw i8, ptr %1, i64 8
  %18 = load i64, ptr %17, align 8
  %19 = icmp ult i64 %18, 16
  tail call void @llvm.assume(i1 %19)
  %20 = add nuw nsw i64 %18, 1
  tail call void @llvm.memcpy.p0.p0.i64(ptr noundef nonnull align 8 dereferenceable(1) %12, ptr noundef nonnull align 8 dereferenceable(1) %14, i64 %20, i1 false)
  br label %_ZNSt7__cxx1112basic_stringIcSt11char_traitsIcESaIcEEC2EOS4_.exit

_ZNKSt7__cxx1112basic_stringIcSt11char_traitsIcESaIcEE11_M_is_localEv.exit.i: ; preds = %11
  store ptr %13, ptr %0, align 8
  %21 = load i64, ptr %14, align 8
  store i64 %21, ptr %12, align 8
  %.phi.trans.insert = getelementptr inbounds nuw i8, ptr %1, i64 8
  %.pre = load i64, ptr %.phi.trans.insert, align 8
  br label %_ZNSt7__cxx1112basic_stringIcSt11char_traitsIcESaIcEEC2EOS4_.exit

_ZNSt7__cxx1112basic_stringIcSt11char_traitsIcESaIcEEC2EOS4_.exit: ; preds = %16, %_ZNKSt7__cxx1112basic_stringIcSt11char_traitsIcESaIcEE11_M_is_localEv.exit.i
  %22 = phi i64 [ %18, %16 ], [ %.pre, %_ZNKSt7__cxx1112basic_stringIcSt11char_traitsIcESaIcEE11_M_is_localEv.exit.i ]
  %23 = getelementptr inbounds nuw i8, ptr %1, i64 8
  %24 = getelementptr inbounds nuw i8, ptr %0, i64 8
  store i64 %22, ptr %24, align 8
  store ptr %14, ptr %1, align 8
  store i64 0, ptr %23, align 8
  store i8 0, ptr %14, align 1
  ret void
}